target datalayout = "e-m:e-p270:32:32-p271:32:32-p272:64:64-i64:64-i128:128-f80:128-n8:16:32:64-S128"
target triple = "x86_64-pc-linux-gnu"

%"struct.faiss::VectorDistance.6" = type { i64, float }
%"struct.faiss::FlatCodesDistanceComputer" = type { %"struct.faiss::DistanceComputer", ptr, i64 }
%"struct.faiss::DistanceComputer" = type { ptr }
%"struct.faiss::(anonymous namespace)::ExtraDistanceComputer.14" = type { %"struct.faiss::FlatCodesDistanceComputer", %"struct.faiss::VectorDistance.6", i64, ptr, ptr }

; Function Attrs: mustprogress nounwind uwtable
define linkonce_odr noundef float @_ZNK5faiss14VectorDistanceILNS_10MetricTypeE23EEclEPKfS4_(ptr noundef nonnull align 8 dereferenceable(16) %0, ptr noundef %1, ptr noundef %2) #4 comdat align 2 {
  %4 = alloca ptr, align 8
  %5 = alloca ptr, align 8
  %6 = alloca ptr, align 8
  %7 = alloca float, align 4
  %8 = alloca float, align 4
  %9 = alloca i64, align 8
  store ptr %0, ptr %4, align 8
  store ptr %1, ptr %5, align 8
  store ptr %2, ptr %6, align 8
  %10 = load ptr, ptr %4, align 8
  store float 0.000000e+00, ptr %7, align 4
  store float 0.000000e+00, ptr %8, align 4
  store i64 0, ptr %9, align 8
  br label %11

11:                                               ; preds = %47, %3
  %12 = load i64, ptr %9, align 8
  %13 = getelementptr inbounds %"struct.faiss::VectorDistance.6", ptr %10, i32 0, i32 0
  %14 = load i64, ptr %13, align 8
  %15 = icmp ult i64 %12, %14
  br i1 %15, label %16, label %50

16:                                               ; preds = %11
  %17 = load ptr, ptr %5, align 8
  %18 = load i64, ptr %9, align 8
  %19 = getelementptr inbounds float, ptr %17, i64 %18
  %20 = load float, ptr %19, align 4
  %21 = fpext float %20 to double
  %22 = load ptr, ptr %6, align 8
  %23 = load i64, ptr %9, align 8
  %24 = getelementptr inbounds float, ptr %22, i64 %23
  %25 = load float, ptr %24, align 4
  %26 = fpext float %25 to double
  %27 = call double @llvm.minnum.f64(double %21, double %26)
  %28 = load float, ptr %7, align 4
  %29 = fpext float %28 to double
  %30 = fadd double %29, %27
  %31 = fptrunc double %30 to float
  store float %31, ptr %7, align 4
  %32 = load ptr, ptr %5, align 8
  %33 = load i64, ptr %9, align 8
  %34 = getelementptr inbounds float, ptr %32, i64 %33
  %35 = load float, ptr %34, align 4
  %36 = fpext float %35 to double
  %37 = load ptr, ptr %6, align 8
  %38 = load i64, ptr %9, align 8
  %39 = getelementptr inbounds float, ptr %37, i64 %38
  %40 = load float, ptr %39, align 4
  %41 = fpext float %40 to double
  %42 = call double @llvm.maxnum.f64(double %36, double %41)
  %43 = load float, ptr %8, align 4
  %44 = fpext float %43 to double
  %45 = fadd double %44, %42
  %46 = fptrunc double %45 to float
  store float %46, ptr %8, align 4
  br label %47

47:                                               ; preds = %16
  %48 = load i64, ptr %9, align 8
  %49 = add i64 %48, 1
  store i64 %49, ptr %9, align 8
  br label %11, !llvm.loop !36

50:                                               ; preds = %11
  %51 = load float, ptr %7, align 4
  %52 = load float, ptr %8, align 4
  %53 = fdiv float %51, %52
  ret float %53
}

; Function Attrs: mustprogress nounwind uwtable
define internal noundef float @_ZN5faiss12_GLOBAL__N_121ExtraDistanceComputerINS_14VectorDistanceILNS_10MetricTypeE23EEEE13symmetric_disEll(ptr noundef nonnull align 8 dereferenceable(64) %0, i64 noundef %1, i64 noundef %2) unnamed_addr #4 align 2 {
  %4 = alloca ptr, align 8
  %5 = alloca i64, align 8
  %6 = alloca i64, align 8
  store ptr %0, ptr %4, align 8
  store i64 %1, ptr %5, align 8
  store i64 %2, ptr %6, align 8
  %7 = load ptr, ptr %4, align 8
  %8 = getelementptr inbounds %"struct.faiss::(anonymous namespace)::ExtraDistanceComputer.14", ptr %7, i32 0, i32 1
  %9 = getelementptr inbounds %"struct.faiss::(anonymous namespace)::ExtraDistanceComputer.14", ptr %7, i32 0, i32 4
  %10 = load ptr, ptr %9, align 8
  %11 = load i64, ptr %6, align 8
  %12 = getelementptr inbounds %"struct.faiss::(anonymous namespace)::ExtraDistanceComputer.14", ptr %7, i32 0, i32 1
  %13 = getelementptr inbounds %"struct.faiss::VectorDistance.6", ptr %12, i32 0, i32 0
  %14 = load i64, ptr %13, align 8
  %15 = mul i64 %11, %14
  %16 = getelementptr inbounds float, ptr %10, i64 %15
  %17 = getelementptr inbounds %"struct.faiss::(anonymous namespace)::ExtraDistanceComputer.14", ptr %7, i32 0, i32 4
  %18 = load ptr, ptr %17, align 8
  %19 = load i64, ptr %5, align 8
  %20 = getelementptr inbounds %"struct.faiss::(anonymous namespace)::ExtraDistanceComputer.14", ptr %7, i32 0, i32 1
  %21 = getelementptr inbounds %"struct.faiss::VectorDistance.6", ptr %20, i32 0, i32 0
  %22 = load i64, ptr %21, align 8
  %23 = mul i64 %19, %22
  %24 = getelementptr inbounds float, ptr %18, i64 %23
  %25 = call noundef float @_ZNK5faiss14VectorDistanceILNS_10MetricTypeE23EEclEPKfS4_(ptr noundef nonnull align 8 dereferenceable(16) %8, ptr noundef %16, ptr noundef %24)
  ret float %25
}