; Function Attrs: mustprogress nofree norecurse nosync nounwind willreturn memory(read, inaccessiblemem: none) uwtable
define internal noundef float @_ZN5faiss12_GLOBAL__N_121ExtraDistanceComputerINS_14VectorDistanceILNS_10MetricTypeE23EEEE13symmetric_disEll(ptr nocapture noundef nonnull readonly align 8 dereferenceable(64) %0, i64 noundef %1, i64 noundef %2) unnamed_addr #17 align 2 {
  %4 = getelementptr inbounds i8, ptr %0, i64 24
  %5 = getelementptr inbounds i8, ptr %0, i64 56
  %6 = load ptr, ptr %5, align 8
  %7 = load i64, ptr %4, align 8
  %8 = mul i64 %7, %2
  %9 = getelementptr inbounds float, ptr %6, i64 %8
  %10 = mul i64 %7, %1
  %11 = getelementptr inbounds float, ptr %6, i64 %10
  %.not.i = icmp eq i64 %7, 0
  br i1 %.not.i, label %_ZNK5faiss14VectorDistanceILNS_10MetricTypeE23EEclEPKfS4_.exit, label %.lr.ph.i

.lr.ph.i:                                         ; preds = %3, %.lr.ph.i
  %.018.i = phi i64 [ %26, %.lr.ph.i ], [ 0, %3 ]
  %12 = phi <2 x float> [ %25, %.lr.ph.i ], [ zeroinitializer, %3 ]
  %13 = getelementptr inbounds float, ptr %9, i64 %.018.i
  %14 = load float, ptr %13, align 4
  %15 = fpext float %14 to double
  %16 = getelementptr inbounds float, ptr %11, i64 %.018.i
  %17 = load float, ptr %16, align 4
  %18 = fpext float %17 to double
  %19 = tail call double @llvm.minnum.f64(double %15, double %18)
  %20 = fpext <2 x float> %12 to <2 x double>
  %21 = tail call double @llvm.maxnum.f64(double %15, double %18)
  %22 = insertelement <2 x double> poison, double %21, i64 0
  %23 = insertelement <2 x double> %22, double %19, i64 1
  %24 = fadd <2 x double> %23, %20
  %25 = fptrunc <2 x double> %24 to <2 x float>
  %26 = add nuw i64 %.018.i, 1
  %exitcond.not.i = icmp eq i64 %26, %7
  br i1 %exitcond.not.i, label %._crit_edge.loopexit.i, label %.lr.ph.i, !llvm.loop !33

._crit_edge.loopexit.i:                           ; preds = %.lr.ph.i
  %27 = extractelement <2 x float> %25, i64 0
  %28 = extractelement <2 x float> %25, i64 1
  %29 = fdiv float %28, %27
  br label %_ZNK5faiss14VectorDistanceILNS_10MetricTypeE23EEclEPKfS4_.exit

_ZNK5faiss14VectorDistanceILNS_10MetricTypeE23EEclEPKfS4_.exit: ; preds = %3, %._crit_edge.loopexit.i
  %30 = phi float [ 0x7FF8000000000000, %3 ], [ %29, %._crit_edge.loopexit.i ]
  ret float %30
}